(dp0
S'Harris (phone)'
p1
I87
sS'Gravis Marketing/One America News'
p2
I101
sS'Public Religion Research Institute'
p3
I97
sS'OnMessage (R-RNC)'
p4
I74
sS'Monmouth University'
p5
I33
sS'Harper (R-Conservative Intelligence Briefing)'
p6
I91
sS'High Point University'
p7
I46
sS'Fairleigh Dickinson'
p8
I29
sS'McLaughlin (R)'
p9
I25
sS'Public Religion Research Institute '
p10
I114
sS'Fox News'
p11
I112
sS'Democracy Corps (D)'
p12
I37
sS'McLaughlin (R)/National  Review (R)'
p13
I76
sS'Clarus'
p14
I79
sS'CBS News'
p15
I66
sS'NBC News'
p16
I32
sS'Public Opinion Strategies (R)'
p17
I19
sS'Marist/McClatchy'
p18
I38
sS'NBC/MSNBC/Telemundo'
p19
I70
sS'Allstate/National Journal'
p20
I22
sS'Suffolk'
p21
I55
sS'Marist College'
p22
I68
sS'NPR'
p23
I23
sS'AP-GfK (Web)'
p24
I10
sS'Democracy Corps (D)/Center for American Progress'
p25
I52
sS'GWU/Battleground'
p26
I24
sS'Zogby (Internet)'
p27
I14
sS'Pew'
p28
I12
sS'McClatchy/Marist'
p29
I7
sS'NBC/WSJ'
p30
I9
sS'GQR (D-Democracy Corps)'
p31
I113
sS'DailyKos/SEIU/PPP (D)'
p32
I43
sS'SurveyUSA'
p33
I57
sS'Zogby (Internet/Phone)'
p34
I82
sS'USC/LA Times'
p35
I50
sS'Suffolk/USA Today'
p36
I96
sS'Gallup'
p37
I1
sS'Ipsos/McClatchy'
p38
I69
sS'McLaughlin (R)/Citizens United (R)'
p39
I75
sS'CBS/Times'
p40
I15
sS'Gravis Marketing/OAN'
p41
I110
sS'Winston Group (R)'
p42
I88
sS'AP/RWJF/Knowledge Networks'
p43
I65
sS'Quinnipiac'
p44
I13
sS'Democracy Corps (D)/Third Way (D)'
p45
I73
sS'FOX'
p46
I5
sS'Democracy Corps (D)/Resurgent Republic (R)'
p47
I61
sS'Pew/USA Today'
p48
I20
sS'NSLC/Public Opinion Strategies (R)'
p49
I78
sS'Zogby (Phone)'
p50
I80
sS'USA Today/PSRAI'
p51
I92
sS'USA Today/Gallup'
p52
I62
sS'AP/Knowledge Networks'
p53
I64
sS'Democracy Corps (D)/CAF'
p54
I67
sS'Rasmussen'
p55
I2
sS"Democracy Corps (D)/Campaign for America's Future"
p56
I60
sS'Anzalone-Liszt (D-AUFC)'
p57
I106
sS'UPI/CVOTER'
p58
I45
sS'Gravis Marketing/OANN'
p59
I111
sS"Democracy Corps (D)/Women's Voices. Women Vote."
p60
I53
sS'USC/LA Times/SurveyMonkey'
p61
I104
sS'ABC/Post'
p62
I18
sS'Moore (R)'
p63
I83
sS'DailyKos/PPP (D)'
p64
I59
sS'Franklin Pierce/RKM/Boston Herald'
p65
I115
sS'Gravis Marketing'
p66
I41
sS'UConn/Hartford Courant'
p67
I31
sS'Tarrance (R)'
p68
I48
sS'Resurgent Republic (R)'
p69
I49
sS'Morning Consult'
p70
I100
sS'JZ Analytics'
p71
I35
sS'YouGov/Economist'
p72
I4
sS'HuffPost/YouGov'
p73
I94
sS'Time'
p74
I34
sS'InsiderAdvantage'
p75
I86
sS'IBD/TIPP'
p76
I105
sS'AP-GfK (web)'
p77
I99
sS'NBC/SurveyMonkey'
p78
I98
sS'PPP (D)'
p79
I26
sS'GQR (D)'
p80
I40
sS'AP-GfK/RWJF/Stanford'
p81
I77
sS'Harris (internet)'
p82
I71
sS'McLaughlin (R-American Conservative Union)'
p83
I47
sS'Normington, Petts & Associates (D-End Citizens United)'
p84
I118
sS'Newsweek'
p85
I63
sS'GWU/Politico (Lake/Tarrance)'
p86
I56
sS'Pollster'
p87
I116
sS'AP-GfK'
p88
I36
sS'Reason/Rupe'
p89
I6
sS'Ipsos/Reuters'
p90
I21
sS'Washington Post'
p91
I54
sS"Democracy Corps (D)/Campaign For America's Future"
p92
I58
sS'Politico/GWU/Battleground'
p93
I39
sS'CBS'
p94
I8
sS'NBC/WSJ/Annenberg'
p95
I93
sS'McLaughlin (R-Madison Coalition)'
p96
I28
sS'PPP'
p97
I95
sS'GWU (Lake/Tarrance)'
p98
I72
sS'Bloomberg'
p99
I16
sS'ICITIZEN'
p100
I117
sS'Saint Leo University'
p101
I17
sS'Bloomberg/Selzer'
p102
I103
sS"GQR (D-Democracy Corps/Women's Voices Women Vote)"
p103
I108
sS"GQR (D-Democracy Corps/Women's Voices Women Vote/Voter Participation Center)"
p104
I109
sS'Newsweek/Daily Beast'
p105
I51
sS'PPP (D-Americans United for Change)'
p106
I42
sS'GQR (D)/Democracy Corps/WVWV'
p107
I107
sS'ABC News'
p108
I90
sS'CNN'
p109
I11
sS'Cook/RT'
p110
I84
sS'Emerson College Polling Society'
p111
I102
sS'Purple Strategies'
p112
I44
sS'Diageo/Hotline'
p113
I81
sS'Democracy Corps (D-WVWV)'
p114
I30
sS'Times/Bloomberg'
p115
I89
sS'ARG'
p116
I3
sS'Ipsos/Reuters (Web)'
p117
I27
sS'NCSC'
p118
I85
s.