(dp0
S'Harris (phone)'
p1
I87
sS'Public Religion Research Institute'
p2
I97
sS'OnMessage (R-RNC)'
p3
I74
sS'Monmouth University'
p4
I33
sS'Harper (R-Conservative Intelligence Briefing)'
p5
I91
sS'High Point University'
p6
I46
sS'Fairleigh Dickinson'
p7
I29
sS'McLaughlin (R)'
p8
I25
sS'Gravis Marketing/One America News'
p9
I101
sS'Democracy Corps (D)'
p10
I37
sS'McLaughlin (R)/National  Review (R)'
p11
I76
sS'Clarus'
p12
I79
sS'CBS News'
p13
I66
sS'CBS/Times'
p14
I15
sS'Newsweek/Daily Beast'
p15
I51
sS'Public Opinion Strategies (R)'
p16
I19
sS'Marist/McClatchy'
p17
I38
sS'NBC/MSNBC/Telemundo'
p18
I70
sS'Allstate/National Journal'
p19
I22
sS'Suffolk'
p20
I55
sS'Marist College'
p21
I68
sS'NPR'
p22
I23
sS'AP-GfK (Web)'
p23
I10
sS'Democracy Corps (D)/Center for American Progress'
p24
I52
sS'GWU/Battleground'
p25
I24
sS'Zogby (Internet)'
p26
I14
sS'Pew'
p27
I12
sS'McClatchy/Marist'
p28
I7
sS'NBC/WSJ'
p29
I9
sS'DailyKos/SEIU/PPP (D)'
p30
I43
sS'SurveyUSA'
p31
I57
sS'Zogby (Internet/Phone)'
p32
I82
sS'USC/LA Times'
p33
I50
sS'Suffolk/USA Today'
p34
I96
sS'Gallup'
p35
I1
sS'Ipsos/McClatchy'
p36
I69
sS'McLaughlin (R)/Citizens United (R)'
p37
I75
sS'NBC News'
p38
I32
sS'Winston Group (R)'
p39
I88
sS'AP/RWJF/Knowledge Networks'
p40
I65
sS'Quinnipiac'
p41
I13
sS'Democracy Corps (D)/Third Way (D)'
p42
I73
sS'FOX'
p43
I5
sS'Democracy Corps (D)/Resurgent Republic (R)'
p44
I61
sS'Pew/USA Today'
p45
I20
sS'NSLC/Public Opinion Strategies (R)'
p46
I78
sS'Zogby (Phone)'
p47
I80
sS'USA Today/PSRAI'
p48
I92
sS'AP/Knowledge Networks'
p49
I64
sS'Democracy Corps (D)/CAF'
p50
I67
sS'Rasmussen'
p51
I2
sS"Democracy Corps (D)/Campaign for America's Future"
p52
I60
sS'Anzalone-Liszt (D-AUFC)'
p53
I106
sS'UPI/CVOTER'
p54
I45
sS"Democracy Corps (D)/Women's Voices. Women Vote."
p55
I53
sS'USC/LA Times/SurveyMonkey'
p56
I104
sS'ABC/Post'
p57
I18
sS'Emerson College Polling Society'
p58
I102
sS'DailyKos/PPP (D)'
p59
I59
sS'Gravis Marketing'
p60
I41
sS'UConn/Hartford Courant'
p61
I31
sS'Tarrance (R)'
p62
I48
sS'Resurgent Republic (R)'
p63
I49
sS'Morning Consult'
p64
I100
sS'JZ Analytics'
p65
I35
sS'YouGov/Economist'
p66
I4
sS'HuffPost/YouGov'
p67
I94
sS'Time'
p68
I34
sS'InsiderAdvantage'
p69
I86
sS'IBD/TIPP'
p70
I105
sS'AP-GfK (web)'
p71
I99
sS'NBC/SurveyMonkey'
p72
I98
sS'PPP (D)'
p73
I26
sS'GQR (D)'
p74
I40
sS'AP-GfK/RWJF/Stanford'
p75
I77
sS'Harris (internet)'
p76
I71
sS'McLaughlin (R-American Conservative Union)'
p77
I47
sS'Newsweek'
p78
I63
sS'GWU/Politico (Lake/Tarrance)'
p79
I56
sS'AP-GfK'
p80
I36
sS'Reason/Rupe'
p81
I6
sS'Ipsos/Reuters'
p82
I21
sS'Washington Post'
p83
I54
sS"Democracy Corps (D)/Campaign For America's Future"
p84
I58
sS'Politico/GWU/Battleground'
p85
I39
sS'CBS'
p86
I8
sS'NBC/WSJ/Annenberg'
p87
I93
sS'McLaughlin (R-Madison Coalition)'
p88
I28
sS'PPP'
p89
I95
sS'GWU (Lake/Tarrance)'
p90
I72
sS'Bloomberg'
p91
I16
sS'Saint Leo University'
p92
I17
sS'Bloomberg/Selzer'
p93
I103
sS"GQR (D-Democracy Corps/Women's Voices Women Vote)"
p94
I108
sS"GQR (D-Democracy Corps/Women's Voices Women Vote/Voter Participation Center)"
p95
I109
sS'USA Today/Gallup'
p96
I62
sS'PPP (D-Americans United for Change)'
p97
I42
sS'GQR (D)/Democracy Corps/WVWV'
p98
I107
sS'ABC News'
p99
I90
sS'CNN'
p100
I11
sS'Cook/RT'
p101
I84
sS'Moore (R)'
p102
I83
sS'Purple Strategies'
p103
I44
sS'Diageo/Hotline'
p104
I81
sS'Democracy Corps (D-WVWV)'
p105
I30
sS'Times/Bloomberg'
p106
I89
sS'ARG'
p107
I3
sS'Ipsos/Reuters (Web)'
p108
I27
sS'NCSC'
p109
I85
s.